; Function Attrs: mustprogress nounwind uwtable
define internal fastcc void @"_ZZNK7glslang10TQualifier31getSpirvDecorateQualifierStringB5cxx11EvENK3$_0clEPKc"(ptr %.0.val, ptr noundef %0) unnamed_addr #0 align 2 {
  %2 = tail call noundef i64 @strlen(ptr noundef nonnull dereferenceable(1) %0) #14
  %3 = getelementptr inbounds nuw i8, ptr %.0.val, i64 16
  %4 = load i64, ptr %3, align 8
  %5 = sub i64 9223372036854775807, %4
  %6 = icmp ult i64 %5, %2
  br i1 %6, label %7, label %_ZNKSt7__cxx1112basic_stringIcSt11char_traitsIcEN7glslang14pool_allocatorIcEEE15_M_check_lengthEmmPKc.exit.i

7:                                                ; preds = %1
  tail call void @_ZSt20__throw_length_errorPKc(ptr noundef nonnull @.str.23) #16
  unreachable

_ZNKSt7__cxx1112basic_stringIcSt11char_traitsIcEN7glslang14pool_allocatorIcEEE15_M_check_lengthEmmPKc.exit.i: ; preds = %1
  %8 = add i64 %4, %2
  %9 = getelementptr inbounds nuw i8, ptr %.0.val, i64 8
  %10 = load ptr, ptr %9, align 8
  %11 = getelementptr inbounds nuw i8, ptr %.0.val, i64 24
  %12 = icmp eq ptr %10, %11
  br i1 %12, label %13, label %_ZNKSt7__cxx1112basic_stringIcSt11char_traitsIcEN7glslang14pool_allocatorIcEEE8capacityEv.exit.i.i

13:                                               ; preds = %_ZNKSt7__cxx1112basic_stringIcSt11char_traitsIcEN7glslang14pool_allocatorIcEEE15_M_check_lengthEmmPKc.exit.i
  %14 = icmp ult i64 %4, 16
  tail call void @llvm.assume(i1 %14)
  br label %_ZNKSt7__cxx1112basic_stringIcSt11char_traitsIcEN7glslang14pool_allocatorIcEEE8capacityEv.exit.i.i

_ZNKSt7__cxx1112basic_stringIcSt11char_traitsIcEN7glslang14pool_allocatorIcEEE8capacityEv.exit.i.i: ; preds = %13, %_ZNKSt7__cxx1112basic_stringIcSt11char_traitsIcEN7glslang14pool_allocatorIcEEE15_M_check_lengthEmmPKc.exit.i
  %15 = load i64, ptr %11, align 8
  %16 = select i1 %12, i64 15, i64 %15
  %.not.i.i = icmp ugt i64 %8, %16
  br i1 %.not.i.i, label %23, label %17

17:                                               ; preds = %_ZNKSt7__cxx1112basic_stringIcSt11char_traitsIcEN7glslang14pool_allocatorIcEEE8capacityEv.exit.i.i
  %.not8.i.i = icmp eq i64 %2, 0
  br i1 %.not8.i.i, label %_ZNSt7__cxx1112basic_stringIcSt11char_traitsIcEN7glslang14pool_allocatorIcEEE6appendEPKc.exit, label %18

18:                                               ; preds = %17
  %19 = getelementptr inbounds i8, ptr %10, i64 %4
  %cond.i.i = icmp eq i64 %2, 1
  br i1 %cond.i.i, label %20, label %22

20:                                               ; preds = %18
  %21 = load i8, ptr %0, align 1
  store i8 %21, ptr %19, align 1
  br label %_ZNSt7__cxx1112basic_stringIcSt11char_traitsIcEN7glslang14pool_allocatorIcEEE6appendEPKc.exit

22:                                               ; preds = %18
  tail call void @llvm.memcpy.p0.p0.i64(ptr align 1 %19, ptr nonnull align 1 %0, i64 %2, i1 false)
  br label %_ZNSt7__cxx1112basic_stringIcSt11char_traitsIcEN7glslang14pool_allocatorIcEEE6appendEPKc.exit

23:                                               ; preds = %_ZNKSt7__cxx1112basic_stringIcSt11char_traitsIcEN7glslang14pool_allocatorIcEEE8capacityEv.exit.i.i
  tail call void @_ZNSt7__cxx1112basic_stringIcSt11char_traitsIcEN7glslang14pool_allocatorIcEEE9_M_mutateEmmPKcm(ptr noundef nonnull align 8 dereferenceable(40) %.0.val, i64 noundef %4, i64 noundef 0, ptr noundef nonnull %0, i64 noundef %2)
  br label %_ZNSt7__cxx1112basic_stringIcSt11char_traitsIcEN7glslang14pool_allocatorIcEEE6appendEPKc.exit

_ZNSt7__cxx1112basic_stringIcSt11char_traitsIcEN7glslang14pool_allocatorIcEEE6appendEPKc.exit: ; preds = %17, %20, %22, %23
  store i64 %8, ptr %3, align 8
  %24 = load ptr, ptr %9, align 8
  %25 = getelementptr inbounds i8, ptr %24, i64 %8
  store i8 0, ptr %25, align 1
  ret void
}